target datalayout = "e-m:e-p270:32:32-p271:32:32-p272:64:64-i64:64-i128:128-f80:128-n8:16:32:64-S128"
target triple = "x86_64-pc-linux-gnu"

%struct.RTSPMessageHeader = type { i32, i32, i32, i64, i64, [8 x %struct.RTSPTransportField], i32, [512 x i8], [4096 x i8], [64 x i8], [64 x i8], i32, i32, [256 x i8], [64 x i8], [64 x i8] }
%struct.RTSPTransportField = type { i32, i32, i32, i32, i32, i32, i32, i32, i32, i32, %struct.sockaddr_storage, [47 x i8], i32, i32 }
%struct.sockaddr_storage = type { i16, [118 x i8], i64 }
%struct.AVFormatContext = type { ptr, ptr, ptr, ptr, ptr, i32, i32, ptr, i32, ptr, i32, ptr, ptr, i64, i64, i64, i32, i32, i32, i64, i64, ptr, i32, i32, ptr, i32, i32, i32, i32, ptr, i64, i32, i32, %struct.AVIOInterruptCB, i32, i32, i32, i32, i64, i32, i32, i32, i32, i32, i32, i32, i32, i32, i32, i32, i32, i64, i32, i32, i32, i32, i32, ptr, ptr, ptr, ptr, i32, ptr, ptr, ptr, ptr, i32, ptr, ptr, i64, ptr, ptr, ptr, i64 }
%struct.AVIOInterruptCB = type { ptr, ptr }
%struct.RTSPState = type { ptr, ptr, i32, ptr, i32, i64, i32, [512 x i8], i32, i64, i32, i32, i32, [64 x i8], [128 x i8], %struct.HTTPAuthState, [2048 x i8], ptr, i32, ptr, ptr, [1024 x i8], ptr, i64, [4096 x i8], ptr, i32, i32, ptr, i32, i32, ptr, i32, i64, ptr, i32, i32, i32, i32, i32, i32, i32, i32, i32, i32, i64, i32, ptr, [4 x i8], i32, i32, ptr }
%struct.HTTPAuthState = type { i32, [200 x i8], %struct.DigestParams, i32 }
%struct.DigestParams = type { [300 x i8], [10 x i8], [30 x i8], [300 x i8], [10 x i8], i32 }

@.str = private unnamed_addr constant [17 x i8] c"Parsing[%d]: %s\0A\00", align 1
@.str.11 = private unnamed_addr constant [18 x i8] c"Message too long\0A\00", align 1
@.str.15 = private unnamed_addr constant [8 x i8] c"OPTIONS\00", align 1
@.str.31 = private unnamed_addr constant [31 x i8] c"Unexpected Sequence number %d\0A\00", align 1
@.str.32 = private unnamed_addr constant [38 x i8] c"There is no session-id at the moment\0A\00", align 1
@.str.33 = private unnamed_addr constant [26 x i8] c"Unexpected session-id %s\0A\00", align 1

; Function Attrs: inlinehint nounwind uwtable
define internal i32 @check_sessionid(ptr noundef %0, ptr noundef %1) #3 {
  %3 = alloca i32, align 4
  %4 = alloca ptr, align 8
  %5 = alloca ptr, align 8
  %6 = alloca ptr, align 8
  %7 = alloca ptr, align 8
  %8 = alloca i32, align 4
  store ptr %0, ptr %4, align 8, !tbaa !4
  store ptr %1, ptr %5, align 8, !tbaa !48
  call void @llvm.lifetime.start.p0(i64 8, ptr %6) #10
  %9 = load ptr, ptr %4, align 8, !tbaa !4
  %10 = getelementptr inbounds nuw %struct.AVFormatContext, ptr %9, i32 0, i32 3
  %11 = load ptr, ptr %10, align 8, !tbaa !9
  store ptr %11, ptr %6, align 8, !tbaa !26
  call void @llvm.lifetime.start.p0(i64 8, ptr %7) #10
  %12 = load ptr, ptr %6, align 8, !tbaa !26
  %13 = getelementptr inbounds nuw %struct.RTSPState, ptr %12, i32 0, i32 7
  %14 = getelementptr inbounds [512 x i8], ptr %13, i64 0, i64 0
  store ptr %14, ptr %7, align 8, !tbaa !40
  %15 = load ptr, ptr %7, align 8, !tbaa !40
  %16 = getelementptr inbounds i8, ptr %15, i64 0
  %17 = load i8, ptr %16, align 1, !tbaa !44
  %18 = icmp ne i8 %17, 0
  br i1 %18, label %21, label %19

19:                                               ; preds = %2
  %20 = load ptr, ptr %4, align 8, !tbaa !4
  call void (ptr, i32, ptr, ...) @av_log(ptr noundef %20, i32 noundef 24, ptr noundef @.str.32)
  store i32 0, ptr %3, align 4
  store i32 1, ptr %8, align 4
  br label %40

21:                                               ; preds = %2
  %22 = load ptr, ptr %7, align 8, !tbaa !40
  %23 = load ptr, ptr %5, align 8, !tbaa !48
  %24 = getelementptr inbounds nuw %struct.RTSPMessageHeader, ptr %23, i32 0, i32 7
  %25 = getelementptr inbounds [512 x i8], ptr %24, i64 0, i64 0
  %26 = call i32 @strcmp(ptr noundef %22, ptr noundef %25) #11
  %27 = icmp ne i32 %26, 0
  br i1 %27, label %28, label %39

28:                                               ; preds = %21
  %29 = load ptr, ptr %4, align 8, !tbaa !4
  %30 = load ptr, ptr %5, align 8, !tbaa !48
  %31 = getelementptr inbounds nuw %struct.RTSPMessageHeader, ptr %30, i32 0, i32 7
  %32 = getelementptr inbounds [512 x i8], ptr %31, i64 0, i64 0
  call void (ptr, i32, ptr, ...) @av_log(ptr noundef %29, i32 noundef 16, ptr noundef @.str.33, ptr noundef %32)
  %33 = load ptr, ptr %4, align 8, !tbaa !4
  %34 = load ptr, ptr %5, align 8, !tbaa !48
  %35 = getelementptr inbounds nuw %struct.RTSPMessageHeader, ptr %34, i32 0, i32 6
  %36 = load i32, ptr %35, align 8, !tbaa !38
  %37 = trunc i32 %36 to i16
  %38 = call i32 @rtsp_send_reply(ptr noundef %33, i32 noundef 454, ptr noundef null, i16 noundef zeroext %37)
  store i32 -1381258232, ptr %3, align 4
  store i32 1, ptr %8, align 4
  br label %40

39:                                               ; preds = %21
  store i32 0, ptr %3, align 4
  store i32 1, ptr %8, align 4
  br label %40

40:                                               ; preds = %39, %28, %19
  call void @llvm.lifetime.end.p0(i64 8, ptr %7) #10
  call void @llvm.lifetime.end.p0(i64 8, ptr %6) #10
  %41 = load i32, ptr %3, align 4
  ret i32 %41
}

; Function Attrs: inlinehint nounwind uwtable
define internal i32 @read_line(ptr noundef %0, ptr noundef %1, i32 noundef %2, ptr noundef %3) #3 {
  %5 = alloca i32, align 4
  %6 = alloca ptr, align 8
  %7 = alloca ptr, align 8
  %8 = alloca i32, align 4
  %9 = alloca ptr, align 8
  %10 = alloca ptr, align 8
  %11 = alloca i32, align 4
  %12 = alloca i32, align 4
  %13 = alloca i32, align 4
  store ptr %0, ptr %6, align 8, !tbaa !4
  store ptr %1, ptr %7, align 8, !tbaa !40
  store i32 %2, ptr %8, align 4, !tbaa !28
  store ptr %3, ptr %9, align 8, !tbaa !41
  call void @llvm.lifetime.start.p0(i64 8, ptr %10) #10
  %14 = load ptr, ptr %6, align 8, !tbaa !4
  %15 = getelementptr inbounds nuw %struct.AVFormatContext, ptr %14, i32 0, i32 3
  %16 = load ptr, ptr %15, align 8, !tbaa !9
  store ptr %16, ptr %10, align 8, !tbaa !26
  call void @llvm.lifetime.start.p0(i64 4, ptr %11) #10
  store i32 0, ptr %11, align 4, !tbaa !28
  call void @llvm.lifetime.start.p0(i64 4, ptr %12) #10
  store i32 0, ptr %12, align 4, !tbaa !28
  %17 = load ptr, ptr %9, align 8, !tbaa !41
  store i32 0, ptr %17, align 4, !tbaa !28
  br label %18

18:                                               ; preds = %66, %4
  %19 = load ptr, ptr %10, align 8, !tbaa !26
  %20 = getelementptr inbounds nuw %struct.RTSPState, ptr %19, i32 0, i32 1
  %21 = load ptr, ptr %20, align 8, !tbaa !43
  %22 = load ptr, ptr %7, align 8, !tbaa !40
  %23 = load i32, ptr %11, align 4, !tbaa !28
  %24 = sext i32 %23 to i64
  %25 = getelementptr inbounds i8, ptr %22, i64 %24
  %26 = call i32 @ffurl_read_complete(ptr noundef %21, ptr noundef %25, i32 noundef 1)
  store i32 %26, ptr %12, align 4, !tbaa !28
  %27 = load i32, ptr %12, align 4, !tbaa !28
  %28 = icmp sle i32 %27, 0
  br i1 %28, label %29, label %37

29:                                               ; preds = %18
  %30 = load i32, ptr %12, align 4, !tbaa !28
  %31 = icmp ne i32 %30, 0
  br i1 %31, label %32, label %34

32:                                               ; preds = %29
  %33 = load i32, ptr %12, align 4, !tbaa !28
  br label %35

34:                                               ; preds = %29
  br label %35

35:                                               ; preds = %34, %32
  %36 = phi i32 [ %33, %32 ], [ -541478725, %34 ]
  store i32 %36, ptr %5, align 4
  store i32 1, ptr %13, align 4
  br label %72

37:                                               ; preds = %18
  %38 = load ptr, ptr %7, align 8, !tbaa !40
  %39 = load i32, ptr %11, align 4, !tbaa !28
  %40 = sext i32 %39 to i64
  %41 = getelementptr inbounds i8, ptr %38, i64 %40
  %42 = load i8, ptr %41, align 1, !tbaa !44
  %43 = sext i8 %42 to i32
  %44 = icmp eq i32 %43, 13
  br i1 %44, label %45, label %46

45:                                               ; preds = %37
  br label %65

46:                                               ; preds = %37
  %47 = load ptr, ptr %7, align 8, !tbaa !40
  %48 = load i32, ptr %11, align 4, !tbaa !28
  %49 = sext i32 %48 to i64
  %50 = getelementptr inbounds i8, ptr %47, i64 %49
  %51 = load i8, ptr %50, align 1, !tbaa !44
  %52 = sext i8 %51 to i32
  %53 = icmp eq i32 %52, 10
  br i1 %53, label %54, label %61

54:                                               ; preds = %46
  %55 = load ptr, ptr %7, align 8, !tbaa !40
  %56 = load i32, ptr %11, align 4, !tbaa !28
  %57 = sext i32 %56 to i64
  %58 = getelementptr inbounds i8, ptr %55, i64 %57
  store i8 0, ptr %58, align 1, !tbaa !44
  %59 = load i32, ptr %11, align 4, !tbaa !28
  %60 = load ptr, ptr %9, align 8, !tbaa !41
  store i32 %59, ptr %60, align 4, !tbaa !28
  store i32 0, ptr %5, align 4
  store i32 1, ptr %13, align 4
  br label %72

61:                                               ; preds = %46
  %62 = load i32, ptr %11, align 4, !tbaa !28
  %63 = add nsw i32 %62, 1
  store i32 %63, ptr %11, align 4, !tbaa !28
  br label %64

64:                                               ; preds = %61
  br label %65

65:                                               ; preds = %64, %45
  br label %66

66:                                               ; preds = %65
  %67 = load i32, ptr %11, align 4, !tbaa !28
  %68 = load i32, ptr %8, align 4, !tbaa !28
  %69 = icmp slt i32 %67, %68
  br i1 %69, label %18, label %70, !llvm.loop !45

70:                                               ; preds = %66
  %71 = load ptr, ptr %6, align 8, !tbaa !4
  call void (ptr, i32, ptr, ...) @av_log(ptr noundef %71, i32 noundef 16, ptr noundef @.str.11)
  store i32 -5, ptr %5, align 4
  store i32 1, ptr %13, align 4
  br label %72

72:                                               ; preds = %70, %54, %35
  call void @llvm.lifetime.end.p0(i64 4, ptr %12) #10
  call void @llvm.lifetime.end.p0(i64 4, ptr %11) #10
  call void @llvm.lifetime.end.p0(i64 8, ptr %10) #10
  %73 = load i32, ptr %5, align 4
  ret i32 %73
}

; Function Attrs: inlinehint nounwind uwtable
define internal i32 @rtsp_read_request(ptr noundef %0, ptr noundef %1, ptr noundef %2) #3 {
  %4 = alloca i32, align 4
  %5 = alloca ptr, align 8
  %6 = alloca ptr, align 8
  %7 = alloca ptr, align 8
  %8 = alloca ptr, align 8
  %9 = alloca [4096 x i8], align 16
  %10 = alloca i32, align 4
  %11 = alloca i32, align 4
  %12 = alloca i32, align 4
  store ptr %0, ptr %5, align 8, !tbaa !4
  store ptr %1, ptr %6, align 8, !tbaa !48
  store ptr %2, ptr %7, align 8, !tbaa !40
  call void @llvm.lifetime.start.p0(i64 8, ptr %8) #10
  %13 = load ptr, ptr %5, align 8, !tbaa !4
  %14 = getelementptr inbounds nuw %struct.AVFormatContext, ptr %13, i32 0, i32 3
  %15 = load ptr, ptr %14, align 8, !tbaa !9
  store ptr %15, ptr %8, align 8, !tbaa !26
  call void @llvm.lifetime.start.p0(i64 4096, ptr %9) #10
  call void @llvm.lifetime.start.p0(i64 4, ptr %10) #10
  call void @llvm.lifetime.start.p0(i64 4, ptr %11) #10
  br label %16

16:                                               ; preds = %37, %3
  %17 = load ptr, ptr %5, align 8, !tbaa !4
  %18 = getelementptr inbounds [4096 x i8], ptr %9, i64 0, i64 0
  %19 = call i32 @read_line(ptr noundef %17, ptr noundef %18, i32 noundef 4096, ptr noundef %10)
  store i32 %19, ptr %11, align 4, !tbaa !28
  %20 = load i32, ptr %11, align 4, !tbaa !28
  %21 = icmp ne i32 %20, 0
  br i1 %21, label %22, label %24

22:                                               ; preds = %16
  %23 = load i32, ptr %11, align 4, !tbaa !28
  store i32 %23, ptr %4, align 4
  store i32 1, ptr %12, align 4
  br label %75

24:                                               ; preds = %16
  %25 = load i32, ptr %10, align 4, !tbaa !28
  %26 = icmp sgt i32 %25, 1
  br i1 %26, label %27, label %36

27:                                               ; preds = %24
  %28 = load ptr, ptr %5, align 8, !tbaa !4
  %29 = load i32, ptr %10, align 4, !tbaa !28
  %30 = getelementptr inbounds [4096 x i8], ptr %9, i64 0, i64 0
  call void (ptr, i32, ptr, ...) @av_log(ptr noundef %28, i32 noundef 56, ptr noundef @.str, i32 noundef %29, ptr noundef %30)
  %31 = load ptr, ptr %5, align 8, !tbaa !4
  %32 = load ptr, ptr %6, align 8, !tbaa !48
  %33 = getelementptr inbounds [4096 x i8], ptr %9, i64 0, i64 0
  %34 = load ptr, ptr %8, align 8, !tbaa !26
  %35 = load ptr, ptr %7, align 8, !tbaa !40
  call void @ff_rtsp_parse_line(ptr noundef %31, ptr noundef %32, ptr noundef %33, ptr noundef %34, ptr noundef %35)
  br label %36

36:                                               ; preds = %27, %24
  br label %37

37:                                               ; preds = %36
  %38 = load i32, ptr %10, align 4, !tbaa !28
  %39 = icmp sgt i32 %38, 0
  br i1 %39, label %16, label %40, !llvm.loop !50

40:                                               ; preds = %37
  %41 = load ptr, ptr %6, align 8, !tbaa !48
  %42 = getelementptr inbounds nuw %struct.RTSPMessageHeader, ptr %41, i32 0, i32 6
  %43 = load i32, ptr %42, align 8, !tbaa !38
  %44 = load ptr, ptr %8, align 8, !tbaa !26
  %45 = getelementptr inbounds nuw %struct.RTSPState, ptr %44, i32 0, i32 6
  %46 = load i32, ptr %45, align 8, !tbaa !29
  %47 = add nsw i32 %46, 1
  %48 = icmp ne i32 %43, %47
  br i1 %48, label %49, label %54

49:                                               ; preds = %40
  %50 = load ptr, ptr %5, align 8, !tbaa !4
  %51 = load ptr, ptr %6, align 8, !tbaa !48
  %52 = getelementptr inbounds nuw %struct.RTSPMessageHeader, ptr %51, i32 0, i32 6
  %53 = load i32, ptr %52, align 8, !tbaa !38
  call void (ptr, i32, ptr, ...) @av_log(ptr noundef %50, i32 noundef 16, ptr noundef @.str.31, i32 noundef %53)
  store i32 -22, ptr %4, align 4
  store i32 1, ptr %12, align 4
  br label %75

54:                                               ; preds = %40
  %55 = load ptr, ptr %8, align 8, !tbaa !26
  %56 = getelementptr inbounds nuw %struct.RTSPState, ptr %55, i32 0, i32 7
  %57 = getelementptr inbounds [512 x i8], ptr %56, i64 0, i64 0
  %58 = load i8, ptr %57, align 4, !tbaa !44
  %59 = sext i8 %58 to i32
  %60 = icmp ne i32 %59, 0
  br i1 %60, label %61, label %74

61:                                               ; preds = %54
  %62 = load ptr, ptr %7, align 8, !tbaa !40
  %63 = call i32 @strcmp(ptr noundef %62, ptr noundef @.str.15) #11
  %64 = icmp ne i32 %63, 0
  br i1 %64, label %65, label %74

65:                                               ; preds = %61
  %66 = load ptr, ptr %5, align 8, !tbaa !4
  %67 = load ptr, ptr %6, align 8, !tbaa !48
  %68 = call i32 @check_sessionid(ptr noundef %66, ptr noundef %67)
  store i32 %68, ptr %11, align 4, !tbaa !28
  %69 = load i32, ptr %11, align 4, !tbaa !28
  %70 = icmp ne i32 %69, 0
  br i1 %70, label %71, label %73

71:                                               ; preds = %65
  %72 = load i32, ptr %11, align 4, !tbaa !28
  store i32 %72, ptr %4, align 4
  store i32 1, ptr %12, align 4
  br label %75

73:                                               ; preds = %65
  br label %74

74:                                               ; preds = %73, %61, %54
  store i32 0, ptr %4, align 4
  store i32 1, ptr %12, align 4
  br label %75

75:                                               ; preds = %74, %71, %49, %22
  call void @llvm.lifetime.end.p0(i64 4, ptr %11) #10
  call void @llvm.lifetime.end.p0(i64 4, ptr %10) #10
  call void @llvm.lifetime.end.p0(i64 4096, ptr %9) #10
  call void @llvm.lifetime.end.p0(i64 8, ptr %8) #10
  %76 = load i32, ptr %4, align 4
  ret i32 %76
}