; Function Attrs: inlinehint nounwind uwtable
define internal fastcc range(i32 -2147483648, 1) i32 @rtsp_read_request(ptr noundef %0, ptr noundef nonnull %1, ptr noundef %2) unnamed_addr #4 {
  %4 = alloca [4096 x i8], align 16
  %5 = getelementptr inbounds nuw i8, ptr %0, i64 24
  %6 = load ptr, ptr %5, align 8, !tbaa !4
  call void @llvm.lifetime.start.p0(i64 4096, ptr nonnull %4) #11
  br label %7

7:                                                ; preds = %27, %3
  %8 = load ptr, ptr %5, align 8, !tbaa !4
  %9 = getelementptr inbounds nuw i8, ptr %8, i64 8
  br label %10

10:                                               ; preds = %21, %7
  %.0.i = phi i32 [ 0, %7 ], [ %.1.i, %21 ]
  %11 = load ptr, ptr %9, align 8, !tbaa !24
  %12 = sext i32 %.0.i to i64
  %13 = getelementptr inbounds i8, ptr %4, i64 %12
  %14 = call i32 @ffurl_read_complete(ptr noundef %11, ptr noundef nonnull %13, i32 noundef 1) #11
  %15 = icmp slt i32 %14, 1
  br i1 %15, label %16, label %17

16:                                               ; preds = %10
  %.not.i = icmp eq i32 %14, 0
  %spec.select = select i1 %.not.i, i32 -541478725, i32 %14
  br label %read_line.exit.thread

17:                                               ; preds = %10
  %18 = load i8, ptr %13, align 1, !tbaa !33
  switch i8 %18, label %19 [
    i8 13, label %21
    i8 10, label %24
  ]

19:                                               ; preds = %17
  %20 = add nsw i32 %.0.i, 1
  br label %21

21:                                               ; preds = %19, %17
  %.1.i = phi i32 [ %.0.i, %17 ], [ %20, %19 ]
  %22 = icmp slt i32 %.1.i, 4096
  br i1 %22, label %10, label %23, !llvm.loop !34

23:                                               ; preds = %21
  call void (ptr, i32, ptr, ...) @av_log(ptr noundef %0, i32 noundef 16, ptr noundef nonnull @.str.11) #11
  br label %read_line.exit.thread

24:                                               ; preds = %17
  store i8 0, ptr %13, align 1, !tbaa !33
  %25 = icmp sgt i32 %.0.i, 1
  br i1 %25, label %26, label %27

26:                                               ; preds = %24
  call void (ptr, i32, ptr, ...) @av_log(ptr noundef %0, i32 noundef 56, ptr noundef nonnull @.str, i32 noundef %.0.i, ptr noundef nonnull %4) #11
  call void @ff_rtsp_parse_line(ptr noundef %0, ptr noundef nonnull %1, ptr noundef nonnull %4, ptr noundef %6, ptr noundef %2) #11
  br label %27

27:                                               ; preds = %24, %26
  %28 = icmp sgt i32 %.0.i, 0
  br i1 %28, label %7, label %29, !llvm.loop !41

29:                                               ; preds = %27
  %30 = getelementptr inbounds nuw i8, ptr %1, i64 1824
  %31 = load i32, ptr %30, align 8, !tbaa !39
  %32 = getelementptr inbounds nuw i8, ptr %6, i64 48
  %33 = load i32, ptr %32, align 8, !tbaa !36
  %34 = add nsw i32 %33, 1
  %.not23 = icmp eq i32 %31, %34
  br i1 %.not23, label %36, label %35

35:                                               ; preds = %29
  call void (ptr, i32, ptr, ...) @av_log(ptr noundef %0, i32 noundef 16, ptr noundef nonnull @.str.31, i32 noundef %31) #11
  br label %read_line.exit.thread

36:                                               ; preds = %29
  %37 = getelementptr inbounds nuw i8, ptr %6, i64 52
  %38 = load i8, ptr %37, align 4, !tbaa !33
  %.not24 = icmp eq i8 %38, 0
  br i1 %.not24, label %read_line.exit.thread, label %39

39:                                               ; preds = %36
  %40 = call i32 @strcmp(ptr noundef nonnull dereferenceable(1) %2, ptr noundef nonnull dereferenceable(8) @.str.15) #12
  %.not25 = icmp eq i32 %40, 0
  br i1 %.not25, label %read_line.exit.thread, label %41

41:                                               ; preds = %39
  %42 = load ptr, ptr %5, align 8, !tbaa !4
  %43 = getelementptr inbounds nuw i8, ptr %42, i64 52
  %44 = load i8, ptr %43, align 1, !tbaa !33
  %.not.i27 = icmp eq i8 %44, 0
  br i1 %.not.i27, label %45, label %46

45:                                               ; preds = %41
  call void (ptr, i32, ptr, ...) @av_log(ptr noundef nonnull %0, i32 noundef 24, ptr noundef nonnull @.str.32) #11
  br label %read_line.exit.thread

46:                                               ; preds = %41
  %47 = getelementptr inbounds nuw i8, ptr %1, i64 1828
  %48 = call i32 @strcmp(ptr noundef nonnull dereferenceable(1) %43, ptr noundef nonnull dereferenceable(1) %47) #12
  %.not10.i = icmp eq i32 %48, 0
  br i1 %.not10.i, label %read_line.exit.thread, label %check_sessionid.exit

check_sessionid.exit:                             ; preds = %46
  call void (ptr, i32, ptr, ...) @av_log(ptr noundef nonnull %0, i32 noundef 16, ptr noundef nonnull @.str.33, ptr noundef nonnull %47) #11
  %49 = load i32, ptr %30, align 8, !tbaa !39
  %50 = trunc i32 %49 to i16
  %51 = call fastcc i32 @rtsp_send_reply(ptr noundef nonnull %0, i32 noundef 454, ptr noundef null, i16 noundef zeroext %50)
  br label %read_line.exit.thread

read_line.exit.thread:                            ; preds = %16, %46, %45, %23, %36, %39, %check_sessionid.exit, %35
  %.0 = phi i32 [ -22, %35 ], [ -1381258232, %check_sessionid.exit ], [ 0, %39 ], [ 0, %36 ], [ -5, %23 ], [ 0, %45 ], [ 0, %46 ], [ %spec.select, %16 ]
  call void @llvm.lifetime.end.p0(i64 4096, ptr nonnull %4) #11
  ret i32 %.0
}